; Function Attrs: mustprogress uwtable
define internal noundef zeroext i1 @"_ZNSt17_Function_handlerIFbRKPN4LIEF3DEX6MethodEEZNKS1_5Class7methodsERKNSt7__cxx1112basic_stringIcSt11char_traitsIcESaIcEEEE3$_0E9_M_invokeERKSt9_Any_dataS5_"(ptr nocapture noundef nonnull readonly align 8 dereferenceable(16) %0, ptr nocapture noundef nonnull readonly align 8 dereferenceable(8) %1) #0 align 2 personality ptr @__gxx_personality_v0 {
  %.val = load ptr, ptr %0, align 8
  %.val2 = load ptr, ptr %1, align 8
  %3 = tail call noundef nonnull align 8 dereferenceable(32) ptr @_ZNK4LIEF3DEX6Method4nameB5cxx11Ev(ptr noundef nonnull align 8 dereferenceable(176) %.val2)
  %4 = tail call noundef i64 @_ZNKSt7__cxx1112basic_stringIcSt11char_traitsIcESaIcEE4sizeEv(ptr noundef nonnull align 8 dereferenceable(32) %3) #17
  %5 = tail call noundef i64 @_ZNKSt7__cxx1112basic_stringIcSt11char_traitsIcESaIcEE4sizeEv(ptr noundef nonnull align 8 dereferenceable(32) %.val) #17
  %6 = icmp eq i64 %4, %5
  br i1 %6, label %7, label %"_ZSt10__invoke_rIbRZNK4LIEF3DEX5Class7methodsERKNSt7__cxx1112basic_stringIcSt11char_traitsIcESaIcEEEE3$_0JRKPNS1_6MethodEEENSt9enable_ifIX16is_invocable_r_vIT_T0_DpT1_EESI_E4typeEOSJ_DpOSK_.exit"

7:                                                ; preds = %2
  %8 = tail call noundef ptr @_ZNKSt7__cxx1112basic_stringIcSt11char_traitsIcESaIcEE4dataEv(ptr noundef nonnull align 8 dereferenceable(32) %3) #17
  %9 = tail call noundef ptr @_ZNKSt7__cxx1112basic_stringIcSt11char_traitsIcESaIcEE4dataEv(ptr noundef nonnull align 8 dereferenceable(32) %.val) #17
  %10 = tail call noundef i64 @_ZNKSt7__cxx1112basic_stringIcSt11char_traitsIcESaIcEE4sizeEv(ptr noundef nonnull align 8 dereferenceable(32) %3) #17
  %11 = icmp eq i64 %10, 0
  br i1 %11, label %"_ZSt10__invoke_rIbRZNK4LIEF3DEX5Class7methodsERKNSt7__cxx1112basic_stringIcSt11char_traitsIcESaIcEEEE3$_0JRKPNS1_6MethodEEENSt9enable_ifIX16is_invocable_r_vIT_T0_DpT1_EESI_E4typeEOSJ_DpOSK_.exit", label %12

12:                                               ; preds = %7
  %bcmp.i.i.i.i = tail call i32 @bcmp(ptr %8, ptr %9, i64 %10)
  %13 = icmp eq i32 %bcmp.i.i.i.i, 0
  br label %"_ZSt10__invoke_rIbRZNK4LIEF3DEX5Class7methodsERKNSt7__cxx1112basic_stringIcSt11char_traitsIcESaIcEEEE3$_0JRKPNS1_6MethodEEENSt9enable_ifIX16is_invocable_r_vIT_T0_DpT1_EESI_E4typeEOSJ_DpOSK_.exit"

"_ZSt10__invoke_rIbRZNK4LIEF3DEX5Class7methodsERKNSt7__cxx1112basic_stringIcSt11char_traitsIcESaIcEEEE3$_0JRKPNS1_6MethodEEENSt9enable_ifIX16is_invocable_r_vIT_T0_DpT1_EESI_E4typeEOSJ_DpOSK_.exit": ; preds = %2, %7, %12
  %14 = phi i1 [ false, %2 ], [ %13, %12 ], [ true, %7 ]
  ret i1 %14
}